target datalayout = "e-m:e-p270:32:32-p271:32:32-p272:64:64-i64:64-i128:128-f80:128-n8:16:32:64-S128"
target triple = "x86_64-pc-linux-gnu"

%struct.redisServer = type { i32, i64, ptr, ptr, ptr, i32, i32, i32, i32, i32, ptr, ptr, ptr, ptr, ptr, i32, i32, i32, i32, i64, i32, i32, i32, i32, ptr, i32, i32, [41 x i8], i32, i64, i32, i32, i32, ptr, ptr, i32, i32, i64, ptr, ptr, ptr, ptr, [2 x i32], i32, i32, i32, i32, i32, i32, [16 x ptr], i32, ptr, ptr, i32, [8 x %struct.connListener], i32, %struct.connListener, ptr, ptr, ptr, ptr, ptr, ptr, ptr, ptr, ptr, ptr, i32, ptr, i32, ptr, [3 x %struct.pause_event], [256 x i8], ptr, i64, i32, i32, [128 x i32], i32, i32, i64, i32, i32, i32, i32, i32, i64, i64, i64, i64, i64, i64, i64, i64, i64, i64, double, i64, i64, i64, i64, i64, i64, i64, i64, i64, i64, i64, i64, i64, i64, i64, i64, i64, i64, i64, i64, i64, double, i64, i64, i64, i64, i64, ptr, i64, i64, i64, %struct.malloc_stats, i64, i64, i64, i64, i64, i64, i64, i64, i64, i64, i64, i64, double, [4 x i64], i64, i64, i64, i64, [128 x i64], [128 x i64], i64, i64, [7 x %struct.anon], i64, i64, i64, i64, i64, i64, [4 x %struct.durationStats], i32, i32, i32, i32, i32, i32, i32, i32, i32, i32, i32, i32, i64, i32, i32, i32, i32, i64, i64, i32, i32, i32, i32, i32, ptr, [3 x %struct.clientBufferLimitsConfig], i32, i32, i32, ptr, i32, i32, i32, i32, i32, i32, ptr, ptr, i32, i32, i64, i64, i64, i64, i64, i32, i32, ptr, i32, i32, i64, i64, i64, i64, i64, i32, i32, i64, i32, i32, i32, i32, i32, i32, i32, i32, ptr, i32, i64, i64, i64, i64, i32, ptr, i32, ptr, i32, i32, i32, i64, i64, i64, i64, i32, i32, i32, i32, i32, i32, ptr, i32, i32, ptr, i32, i32, i32, [2 x i32], i32, %struct.redisOpArray, i32, ptr, i32, ptr, i32, i32, i32, i32, i32, i32, i32, [41 x i8], [41 x i8], i64, i64, i64, i64, i32, i32, ptr, i64, i64, %struct.replDataBuf, i64, i64, i32, i32, i32, i32, i32, i32, i32, i32, i32, i64, ptr, i64, ptr, ptr, ptr, i32, i32, ptr, ptr, i32, i32, i32, i64, i64, i64, i64, ptr, ptr, i32, ptr, i64, i32, i32, i32, i64, i32, i32, i32, i32, ptr, i32, i32, [41 x i8], i64, i32, ptr, i32, i32, i64, i64, i32, i32, i32, i32, i32, i64, [3 x i32], i32, i32, i32, [10 x i32], ptr, ptr, i32, i64, ptr, ptr, i32, i32, i32, i32, i64, i64, i64, i64, i64, i64, i64, i64, i64, i64, i32, i32, i64, i64, i32, i64, i64, i64, i64, i64, ptr, ptr, i32, ptr, i32, i32, i32, i32, i64, i64, ptr, ptr, i32, i32, i32, i32, i32, ptr, ptr, ptr, i32, i32, i32, i32, i32, i32, i32, i64, i32, i32, i64, i32, i32, i32, i32, i32, i32, i32, i64, ptr, ptr, i64, ptr, i32, %struct.aclInfo, i32, i64, i32, i32, i32, %struct.redisTLSContextConfig, ptr, ptr, ptr, ptr, ptr, i64, i32, ptr, i32, i32, i32, i64, i32, ptr }
%struct.connListener = type { [16 x i32], i32, ptr, i32, i32, ptr, ptr }
%struct.pause_event = type { i32, i64 }
%struct.malloc_stats = type { i64, i64, i64, i64, i64, i64, i64, i64, i64, i64, i64 }
%struct.anon = type { i64, i64, [16 x i64], i32 }
%struct.durationStats = type { i64, i64, i64 }
%struct.clientBufferLimitsConfig = type { i64, i64, i64 }
%struct.redisOpArray = type { ptr, i32, i32 }
%struct.replDataBuf = type { ptr, i64, i64, i64, i64 }
%struct.aclInfo = type { i64, i64, i64, i64 }
%struct.redisTLSContextConfig = type { ptr, ptr, ptr, ptr, ptr, ptr, ptr, ptr, ptr, ptr, ptr, ptr, i32, i32, i32, i32 }
%struct.redisObject = type { i32, i32, ptr }
%struct.dict = type { ptr, [2 x ptr], [2 x i64], i64, i16, [2 x i8], i16, [0 x ptr] }
%struct.defragCtx = type { ptr, i32 }
%struct.defragPubSubCtx = type { ptr, ptr }

@server = external global %struct.redisServer, align 8
@.str = private unnamed_addr constant [9 x i8] c"defrag.c\00", align 1
@.str.24 = private unnamed_addr constant [48 x i8] c"channel->refcount == (int)dictSize(clients) + 1\00", align 1
@.str.25 = private unnamed_addr constant [15 x i8] c"pubsub_channel\00", align 1

; Function Attrs: nounwind uwtable
define dso_local void @defragPubsubScanCallback(ptr noundef %0, ptr noundef %1) #0 {
  %3 = alloca ptr, align 8
  %4 = alloca ptr, align 8
  %5 = alloca ptr, align 8
  %6 = alloca ptr, align 8
  %7 = alloca ptr, align 8
  %8 = alloca ptr, align 8
  %9 = alloca ptr, align 8
  %10 = alloca ptr, align 8
  %11 = alloca ptr, align 8
  %12 = alloca ptr, align 8
  %13 = alloca ptr, align 8
  %14 = alloca ptr, align 8
  %15 = alloca ptr, align 8
  store ptr %0, ptr %3, align 8, !tbaa !5
  store ptr %1, ptr %4, align 8, !tbaa !75
  call void @llvm.lifetime.start.p0(i64 8, ptr %5) #10
  %16 = load ptr, ptr %3, align 8, !tbaa !5
  store ptr %16, ptr %5, align 8, !tbaa !164
  call void @llvm.lifetime.start.p0(i64 8, ptr %6) #10
  %17 = load ptr, ptr %5, align 8, !tbaa !164
  %18 = getelementptr inbounds nuw %struct.defragCtx, ptr %17, i32 0, i32 0
  %19 = load ptr, ptr %18, align 8, !tbaa !166
  store ptr %19, ptr %6, align 8, !tbaa !183
  call void @llvm.lifetime.start.p0(i64 8, ptr %7) #10
  %20 = load ptr, ptr %6, align 8, !tbaa !183
  %21 = getelementptr inbounds nuw %struct.defragPubSubCtx, ptr %20, i32 0, i32 0
  %22 = load ptr, ptr %21, align 8, !tbaa !185
  store ptr %22, ptr %7, align 8, !tbaa !187
  call void @llvm.lifetime.start.p0(i64 8, ptr %8) #10
  call void @llvm.lifetime.start.p0(i64 8, ptr %9) #10
  %23 = load ptr, ptr %4, align 8, !tbaa !75
  %24 = call ptr @dictGetKey(ptr noundef %23)
  store ptr %24, ptr %9, align 8, !tbaa !42
  call void @llvm.lifetime.start.p0(i64 8, ptr %10) #10
  call void @llvm.lifetime.start.p0(i64 8, ptr %11) #10
  %25 = load ptr, ptr %4, align 8, !tbaa !75
  %26 = call ptr @dictGetVal(ptr noundef %25)
  store ptr %26, ptr %11, align 8, !tbaa !53
  %27 = load ptr, ptr %9, align 8, !tbaa !42
  %28 = getelementptr inbounds nuw %struct.redisObject, ptr %27, i32 0, i32 1
  %29 = load i32, ptr %28, align 4, !tbaa !45
  %30 = load ptr, ptr %11, align 8, !tbaa !53
  %31 = getelementptr inbounds nuw %struct.dict, ptr %30, i32 0, i32 2
  %32 = getelementptr inbounds [2 x i64], ptr %31, i64 0, i64 0
  %33 = load i64, ptr %32, align 8, !tbaa !39
  %34 = load ptr, ptr %11, align 8, !tbaa !53
  %35 = getelementptr inbounds nuw %struct.dict, ptr %34, i32 0, i32 2
  %36 = getelementptr inbounds [2 x i64], ptr %35, i64 0, i64 1
  %37 = load i64, ptr %36, align 8, !tbaa !39
  %38 = add i64 %33, %37
  %39 = trunc i64 %38 to i32
  %40 = add nsw i32 %39, 1
  %41 = icmp eq i32 %29, %40
  %42 = xor i1 %41, true
  %43 = xor i1 %42, true
  %44 = zext i1 %43 to i32
  %45 = sext i32 %44 to i64
  %46 = call i64 @llvm.expect.i64(i64 %45, i64 1)
  %47 = icmp ne i64 %46, 0
  br i1 %47, label %48, label %49

48:                                               ; preds = %2
  br label %51

49:                                               ; preds = %2
  call void @_serverAssert(ptr noundef @.str.24, ptr noundef @.str, i32 noundef 890)
  call void @abort() #11
  unreachable

50:                                               ; No predecessors!
  br label %51

51:                                               ; preds = %50, %48
  %52 = load ptr, ptr %9, align 8, !tbaa !42
  %53 = load ptr, ptr %11, align 8, !tbaa !53
  %54 = getelementptr inbounds nuw %struct.dict, ptr %53, i32 0, i32 2
  %55 = getelementptr inbounds [2 x i64], ptr %54, i64 0, i64 0
  %56 = load i64, ptr %55, align 8, !tbaa !39
  %57 = load ptr, ptr %11, align 8, !tbaa !53
  %58 = getelementptr inbounds nuw %struct.dict, ptr %57, i32 0, i32 2
  %59 = getelementptr inbounds [2 x i64], ptr %58, i64 0, i64 1
  %60 = load i64, ptr %59, align 8, !tbaa !39
  %61 = add i64 %56, %60
  %62 = add i64 %61, 1
  %63 = trunc i64 %62 to i32
  %64 = call ptr @activeDefragStringObEx(ptr noundef %52, i32 noundef %63)
  store ptr %64, ptr %8, align 8, !tbaa !42
  %65 = load ptr, ptr %8, align 8, !tbaa !42
  %66 = icmp ne ptr %65, null
  br i1 %66, label %67, label %111

67:                                               ; preds = %51
  %68 = load ptr, ptr %7, align 8, !tbaa !187
  %69 = load ptr, ptr %5, align 8, !tbaa !164
  %70 = getelementptr inbounds nuw %struct.defragCtx, ptr %69, i32 0, i32 1
  %71 = load i32, ptr %70, align 8, !tbaa !168
  %72 = load ptr, ptr %4, align 8, !tbaa !75
  %73 = load ptr, ptr %8, align 8, !tbaa !42
  call void @kvstoreDictSetKey(ptr noundef %68, i32 noundef %71, ptr noundef %72, ptr noundef %73)
  call void @llvm.lifetime.start.p0(i64 8, ptr %12) #10
  %74 = load ptr, ptr %11, align 8, !tbaa !53
  %75 = call ptr @dictGetIterator(ptr noundef %74)
  store ptr %75, ptr %12, align 8, !tbaa !119
  call void @llvm.lifetime.start.p0(i64 8, ptr %13) #10
  br label %76

76:                                               ; preds = %101, %67
  %77 = load ptr, ptr %12, align 8, !tbaa !119
  %78 = call ptr @dictNext(ptr noundef %77)
  store ptr %78, ptr %13, align 8, !tbaa !75
  %79 = icmp ne ptr %78, null
  br i1 %79, label %80, label %109

80:                                               ; preds = %76
  call void @llvm.lifetime.start.p0(i64 8, ptr %14) #10
  %81 = load ptr, ptr %13, align 8, !tbaa !75
  %82 = call ptr @dictGetKey(ptr noundef %81)
  store ptr %82, ptr %14, align 8, !tbaa !188
  call void @llvm.lifetime.start.p0(i64 8, ptr %15) #10
  %83 = load ptr, ptr %6, align 8, !tbaa !183
  %84 = getelementptr inbounds nuw %struct.defragPubSubCtx, ptr %83, i32 0, i32 1
  %85 = load ptr, ptr %84, align 8, !tbaa !189
  %86 = load ptr, ptr %14, align 8, !tbaa !188
  %87 = call ptr %85(ptr noundef %86)
  %88 = load ptr, ptr %8, align 8, !tbaa !42
  %89 = call ptr @dictFind(ptr noundef %87, ptr noundef %88)
  store ptr %89, ptr %15, align 8, !tbaa !75
  %90 = load ptr, ptr %15, align 8, !tbaa !75
  %91 = icmp ne ptr %90, null
  %92 = xor i1 %91, true
  %93 = xor i1 %92, true
  %94 = zext i1 %93 to i32
  %95 = sext i32 %94 to i64
  %96 = call i64 @llvm.expect.i64(i64 %95, i64 1)
  %97 = icmp ne i64 %96, 0
  br i1 %97, label %98, label %99

98:                                               ; preds = %80
  br label %101

99:                                               ; preds = %80
  call void @_serverAssert(ptr noundef @.str.25, ptr noundef @.str, i32 noundef 903)
  call void @abort() #11
  unreachable

100:                                              ; No predecessors!
  br label %101

101:                                              ; preds = %100, %98
  %102 = load ptr, ptr %6, align 8, !tbaa !183
  %103 = getelementptr inbounds nuw %struct.defragPubSubCtx, ptr %102, i32 0, i32 1
  %104 = load ptr, ptr %103, align 8, !tbaa !189
  %105 = load ptr, ptr %14, align 8, !tbaa !188
  %106 = call ptr %104(ptr noundef %105)
  %107 = load ptr, ptr %15, align 8, !tbaa !75
  %108 = load ptr, ptr %8, align 8, !tbaa !42
  call void @dictSetKey(ptr noundef %106, ptr noundef %107, ptr noundef %108)
  call void @llvm.lifetime.end.p0(i64 8, ptr %15) #10
  call void @llvm.lifetime.end.p0(i64 8, ptr %14) #10
  br label %76, !llvm.loop !190

109:                                              ; preds = %76
  %110 = load ptr, ptr %12, align 8, !tbaa !119
  call void @dictReleaseIterator(ptr noundef %110)
  call void @llvm.lifetime.end.p0(i64 8, ptr %13) #10
  call void @llvm.lifetime.end.p0(i64 8, ptr %12) #10
  br label %111

111:                                              ; preds = %109, %51
  %112 = load ptr, ptr %11, align 8, !tbaa !53
  %113 = call ptr @dictDefragTables(ptr noundef %112)
  store ptr %113, ptr %10, align 8, !tbaa !53
  %114 = icmp ne ptr %113, null
  br i1 %114, label %115, label %122

115:                                              ; preds = %111
  %116 = load ptr, ptr %7, align 8, !tbaa !187
  %117 = load ptr, ptr %5, align 8, !tbaa !164
  %118 = getelementptr inbounds nuw %struct.defragCtx, ptr %117, i32 0, i32 1
  %119 = load i32, ptr %118, align 8, !tbaa !168
  %120 = load ptr, ptr %4, align 8, !tbaa !75
  %121 = load ptr, ptr %10, align 8, !tbaa !53
  call void @kvstoreDictSetVal(ptr noundef %116, i32 noundef %119, ptr noundef %120, ptr noundef %121)
  br label %122

122:                                              ; preds = %115, %111
  %123 = load i64, ptr getelementptr inbounds nuw (%struct.redisServer, ptr @server, i32 0, i32 110), align 8, !tbaa !114
  %124 = add nsw i64 %123, 1
  store i64 %124, ptr getelementptr inbounds nuw (%struct.redisServer, ptr @server, i32 0, i32 110), align 8, !tbaa !114
  call void @llvm.lifetime.end.p0(i64 8, ptr %11) #10
  call void @llvm.lifetime.end.p0(i64 8, ptr %10) #10
  call void @llvm.lifetime.end.p0(i64 8, ptr %9) #10
  call void @llvm.lifetime.end.p0(i64 8, ptr %8) #10
  call void @llvm.lifetime.end.p0(i64 8, ptr %7) #10
  call void @llvm.lifetime.end.p0(i64 8, ptr %6) #10
  call void @llvm.lifetime.end.p0(i64 8, ptr %5) #10
  ret void
}