; Function Attrs: nounwind uwtable
define dso_local void @defragPubsubScanCallback(ptr noundef readonly captures(none) %0, ptr noundef %1) #0 {
  %3 = load ptr, ptr %0, align 8, !tbaa !133
  %4 = load ptr, ptr %3, align 8, !tbaa !146
  %5 = tail call ptr @dictGetKey(ptr noundef %1) #10
  %6 = tail call ptr @dictGetVal(ptr noundef %1) #10
  %7 = getelementptr inbounds nuw i8, ptr %5, i64 4
  %8 = load i32, ptr %7, align 4, !tbaa !39
  %9 = getelementptr inbounds nuw i8, ptr %6, i64 24
  %10 = load i64, ptr %9, align 8, !tbaa !94
  %11 = getelementptr inbounds nuw i8, ptr %6, i64 32
  %12 = load i64, ptr %11, align 8, !tbaa !94
  %13 = add i64 %12, %10
  %14 = trunc i64 %13 to i32
  %15 = add nsw i32 %14, 1
  %16 = icmp eq i32 %8, %15
  br i1 %16, label %18, label %17, !prof !58

17:                                               ; preds = %2
  tail call void @_serverAssert(ptr noundef nonnull @.str.24, ptr noundef nonnull @.str, i32 noundef 890) #10
  tail call void @abort() #11
  unreachable

18:                                               ; preds = %2
  %19 = tail call ptr @activeDefragStringObEx(ptr noundef nonnull %5, i32 noundef %8)
  %.not = icmp eq ptr %19, null
  br i1 %.not, label %37, label %20

20:                                               ; preds = %18
  %21 = getelementptr inbounds nuw i8, ptr %0, i64 8
  %22 = load i32, ptr %21, align 8, !tbaa !135
  tail call void @kvstoreDictSetKey(ptr noundef %4, i32 noundef %22, ptr noundef %1, ptr noundef nonnull %19) #10
  %23 = tail call ptr @dictGetIterator(ptr noundef nonnull %6) #10
  %24 = tail call ptr @dictNext(ptr noundef %23) #10
  %.not3639 = icmp eq ptr %24, null
  br i1 %.not3639, label %._crit_edge, label %.lr.ph

.lr.ph:                                           ; preds = %20
  %25 = getelementptr inbounds nuw i8, ptr %3, i64 8
  br label %26

26:                                               ; preds = %.lr.ph, %33
  %27 = phi ptr [ %24, %.lr.ph ], [ %36, %33 ]
  %28 = tail call ptr @dictGetKey(ptr noundef nonnull %27) #10
  %29 = load ptr, ptr %25, align 8, !tbaa !148
  %30 = tail call ptr %29(ptr noundef %28) #10
  %31 = tail call ptr @dictFind(ptr noundef %30, ptr noundef nonnull %19) #10
  %.not38 = icmp eq ptr %31, null
  br i1 %.not38, label %32, label %33, !prof !57

32:                                               ; preds = %26
  tail call void @_serverAssert(ptr noundef nonnull @.str.25, ptr noundef nonnull @.str, i32 noundef 903) #10
  tail call void @abort() #11
  unreachable

33:                                               ; preds = %26
  %34 = load ptr, ptr %25, align 8, !tbaa !148
  %35 = tail call ptr %34(ptr noundef %28) #10
  tail call void @dictSetKey(ptr noundef %35, ptr noundef nonnull %31, ptr noundef nonnull %19) #10
  %36 = tail call ptr @dictNext(ptr noundef %23) #10
  %.not36 = icmp eq ptr %36, null
  br i1 %.not36, label %._crit_edge, label %26, !llvm.loop !149

._crit_edge:                                      ; preds = %33, %20
  tail call void @dictReleaseIterator(ptr noundef %23) #10
  br label %37

37:                                               ; preds = %._crit_edge, %18
  %38 = tail call ptr @dictDefragTables(ptr noundef %6)
  %.not37 = icmp eq ptr %38, null
  br i1 %.not37, label %42, label %39

39:                                               ; preds = %37
  %40 = getelementptr inbounds nuw i8, ptr %0, i64 8
  %41 = load i32, ptr %40, align 8, !tbaa !135
  tail call void @kvstoreDictSetVal(ptr noundef %4, i32 noundef %41, ptr noundef %1, ptr noundef nonnull %38) #10
  br label %42

42:                                               ; preds = %39, %37
  %43 = load i64, ptr getelementptr inbounds nuw (i8, ptr @server, i64 2616), align 8, !tbaa !95
  %44 = add nsw i64 %43, 1
  store i64 %44, ptr getelementptr inbounds nuw (i8, ptr @server, i64 2616), align 8, !tbaa !95
  ret void
}